target datalayout = "e-m:e-p270:32:32-p271:32:32-p272:64:64-i64:64-i128:128-f80:128-n8:16:32:64-S128"
target triple = "x86_64-pc-linux-gnu"

; Function Attrs: inlinehint nounwind uwtable
define internal i64 @lpEncodeBacklenBytes(i64 noundef %0) #6 {
  %2 = alloca i64, align 8
  %3 = alloca i64, align 8
  store i64 %0, ptr %3, align 8, !tbaa !10
  %4 = load i64, ptr %3, align 8, !tbaa !10
  %5 = icmp ule i64 %4, 127
  br i1 %5, label %6, label %7

6:                                                ; preds = %1
  store i64 1, ptr %2, align 8
  br label %20

7:                                                ; preds = %1
  %8 = load i64, ptr %3, align 8, !tbaa !10
  %9 = icmp ult i64 %8, 16383
  br i1 %9, label %10, label %11

10:                                               ; preds = %7
  store i64 2, ptr %2, align 8
  br label %20

11:                                               ; preds = %7
  %12 = load i64, ptr %3, align 8, !tbaa !10
  %13 = icmp ult i64 %12, 2097151
  br i1 %13, label %14, label %15

14:                                               ; preds = %11
  store i64 3, ptr %2, align 8
  br label %20

15:                                               ; preds = %11
  %16 = load i64, ptr %3, align 8, !tbaa !10
  %17 = icmp ult i64 %16, 268435455
  br i1 %17, label %18, label %19

18:                                               ; preds = %15
  store i64 4, ptr %2, align 8
  br label %20

19:                                               ; preds = %15
  store i64 5, ptr %2, align 8
  br label %20

20:                                               ; preds = %19, %18, %14, %10, %6
  %21 = load i64, ptr %2, align 8
  ret i64 %21
}

; Function Attrs: inlinehint nounwind uwtable
define internal void @lpEncodeIntegerGetType(i64 noundef %0, ptr noundef %1, ptr noundef %2) #6 {
  %4 = alloca i64, align 8
  %5 = alloca ptr, align 8
  %6 = alloca ptr, align 8
  %7 = alloca i64, align 8
  store i64 %0, ptr %4, align 8, !tbaa !10
  store ptr %1, ptr %5, align 8, !tbaa !5
  store ptr %2, ptr %6, align 8, !tbaa !13
  %8 = load i64, ptr %4, align 8, !tbaa !10
  %9 = icmp sge i64 %8, 0
  br i1 %9, label %10, label %27

10:                                               ; preds = %3
  %11 = load i64, ptr %4, align 8, !tbaa !10
  %12 = icmp sle i64 %11, 127
  br i1 %12, label %13, label %27

13:                                               ; preds = %10
  %14 = load ptr, ptr %5, align 8, !tbaa !5
  %15 = icmp ne ptr %14, null
  br i1 %15, label %16, label %21

16:                                               ; preds = %13
  %17 = load i64, ptr %4, align 8, !tbaa !10
  %18 = trunc i64 %17 to i8
  %19 = load ptr, ptr %5, align 8, !tbaa !5
  %20 = getelementptr inbounds i8, ptr %19, i64 0
  store i8 %18, ptr %20, align 1, !tbaa !12
  br label %21

21:                                               ; preds = %16, %13
  %22 = load ptr, ptr %6, align 8, !tbaa !13
  %23 = icmp ne ptr %22, null
  br i1 %23, label %24, label %26

24:                                               ; preds = %21
  %25 = load ptr, ptr %6, align 8, !tbaa !13
  store i64 1, ptr %25, align 8, !tbaa !10
  br label %26

26:                                               ; preds = %24, %21
  br label %243

27:                                               ; preds = %10, %3
  %28 = load i64, ptr %4, align 8, !tbaa !10
  %29 = icmp sge i64 %28, -4096
  br i1 %29, label %30, label %60

30:                                               ; preds = %27
  %31 = load i64, ptr %4, align 8, !tbaa !10
  %32 = icmp sle i64 %31, 4095
  br i1 %32, label %33, label %60

33:                                               ; preds = %30
  %34 = load i64, ptr %4, align 8, !tbaa !10
  %35 = icmp slt i64 %34, 0
  br i1 %35, label %36, label %39

36:                                               ; preds = %33
  %37 = load i64, ptr %4, align 8, !tbaa !10
  %38 = add nsw i64 8192, %37
  store i64 %38, ptr %4, align 8, !tbaa !10
  br label %39

39:                                               ; preds = %36, %33
  %40 = load ptr, ptr %5, align 8, !tbaa !5
  %41 = icmp ne ptr %40, null
  br i1 %41, label %42, label %54

42:                                               ; preds = %39
  %43 = load i64, ptr %4, align 8, !tbaa !10
  %44 = ashr i64 %43, 8
  %45 = or i64 %44, 192
  %46 = trunc i64 %45 to i8
  %47 = load ptr, ptr %5, align 8, !tbaa !5
  %48 = getelementptr inbounds i8, ptr %47, i64 0
  store i8 %46, ptr %48, align 1, !tbaa !12
  %49 = load i64, ptr %4, align 8, !tbaa !10
  %50 = and i64 %49, 255
  %51 = trunc i64 %50 to i8
  %52 = load ptr, ptr %5, align 8, !tbaa !5
  %53 = getelementptr inbounds i8, ptr %52, i64 1
  store i8 %51, ptr %53, align 1, !tbaa !12
  br label %54

54:                                               ; preds = %42, %39
  %55 = load ptr, ptr %6, align 8, !tbaa !13
  %56 = icmp ne ptr %55, null
  br i1 %56, label %57, label %59

57:                                               ; preds = %54
  %58 = load ptr, ptr %6, align 8, !tbaa !13
  store i64 2, ptr %58, align 8, !tbaa !10
  br label %59

59:                                               ; preds = %57, %54
  br label %242

60:                                               ; preds = %30, %27
  %61 = load i64, ptr %4, align 8, !tbaa !10
  %62 = icmp sge i64 %61, -32768
  br i1 %62, label %63, label %94

63:                                               ; preds = %60
  %64 = load i64, ptr %4, align 8, !tbaa !10
  %65 = icmp sle i64 %64, 32767
  br i1 %65, label %66, label %94

66:                                               ; preds = %63
  %67 = load i64, ptr %4, align 8, !tbaa !10
  %68 = icmp slt i64 %67, 0
  br i1 %68, label %69, label %72

69:                                               ; preds = %66
  %70 = load i64, ptr %4, align 8, !tbaa !10
  %71 = add nsw i64 65536, %70
  store i64 %71, ptr %4, align 8, !tbaa !10
  br label %72

72:                                               ; preds = %69, %66
  %73 = load ptr, ptr %5, align 8, !tbaa !5
  %74 = icmp ne ptr %73, null
  br i1 %74, label %75, label %88

75:                                               ; preds = %72
  %76 = load ptr, ptr %5, align 8, !tbaa !5
  %77 = getelementptr inbounds i8, ptr %76, i64 0
  store i8 -15, ptr %77, align 1, !tbaa !12
  %78 = load i64, ptr %4, align 8, !tbaa !10
  %79 = and i64 %78, 255
  %80 = trunc i64 %79 to i8
  %81 = load ptr, ptr %5, align 8, !tbaa !5
  %82 = getelementptr inbounds i8, ptr %81, i64 1
  store i8 %80, ptr %82, align 1, !tbaa !12
  %83 = load i64, ptr %4, align 8, !tbaa !10
  %84 = ashr i64 %83, 8
  %85 = trunc i64 %84 to i8
  %86 = load ptr, ptr %5, align 8, !tbaa !5
  %87 = getelementptr inbounds i8, ptr %86, i64 2
  store i8 %85, ptr %87, align 1, !tbaa !12
  br label %88

88:                                               ; preds = %75, %72
  %89 = load ptr, ptr %6, align 8, !tbaa !13
  %90 = icmp ne ptr %89, null
  br i1 %90, label %91, label %93

91:                                               ; preds = %88
  %92 = load ptr, ptr %6, align 8, !tbaa !13
  store i64 3, ptr %92, align 8, !tbaa !10
  br label %93

93:                                               ; preds = %91, %88
  br label %241

94:                                               ; preds = %63, %60
  %95 = load i64, ptr %4, align 8, !tbaa !10
  %96 = icmp sge i64 %95, -8388608
  br i1 %96, label %97, label %134

97:                                               ; preds = %94
  %98 = load i64, ptr %4, align 8, !tbaa !10
  %99 = icmp sle i64 %98, 8388607
  br i1 %99, label %100, label %134

100:                                              ; preds = %97
  %101 = load i64, ptr %4, align 8, !tbaa !10
  %102 = icmp slt i64 %101, 0
  br i1 %102, label %103, label %106

103:                                              ; preds = %100
  %104 = load i64, ptr %4, align 8, !tbaa !10
  %105 = add nsw i64 16777216, %104
  store i64 %105, ptr %4, align 8, !tbaa !10
  br label %106

106:                                              ; preds = %103, %100
  %107 = load ptr, ptr %5, align 8, !tbaa !5
  %108 = icmp ne ptr %107, null
  br i1 %108, label %109, label %128

109:                                              ; preds = %106
  %110 = load ptr, ptr %5, align 8, !tbaa !5
  %111 = getelementptr inbounds i8, ptr %110, i64 0
  store i8 -14, ptr %111, align 1, !tbaa !12
  %112 = load i64, ptr %4, align 8, !tbaa !10
  %113 = and i64 %112, 255
  %114 = trunc i64 %113 to i8
  %115 = load ptr, ptr %5, align 8, !tbaa !5
  %116 = getelementptr inbounds i8, ptr %115, i64 1
  store i8 %114, ptr %116, align 1, !tbaa !12
  %117 = load i64, ptr %4, align 8, !tbaa !10
  %118 = ashr i64 %117, 8
  %119 = and i64 %118, 255
  %120 = trunc i64 %119 to i8
  %121 = load ptr, ptr %5, align 8, !tbaa !5
  %122 = getelementptr inbounds i8, ptr %121, i64 2
  store i8 %120, ptr %122, align 1, !tbaa !12
  %123 = load i64, ptr %4, align 8, !tbaa !10
  %124 = ashr i64 %123, 16
  %125 = trunc i64 %124 to i8
  %126 = load ptr, ptr %5, align 8, !tbaa !5
  %127 = getelementptr inbounds i8, ptr %126, i64 3
  store i8 %125, ptr %127, align 1, !tbaa !12
  br label %128

128:                                              ; preds = %109, %106
  %129 = load ptr, ptr %6, align 8, !tbaa !13
  %130 = icmp ne ptr %129, null
  br i1 %130, label %131, label %133

131:                                              ; preds = %128
  %132 = load ptr, ptr %6, align 8, !tbaa !13
  store i64 4, ptr %132, align 8, !tbaa !10
  br label %133

133:                                              ; preds = %131, %128
  br label %240

134:                                              ; preds = %97, %94
  %135 = load i64, ptr %4, align 8, !tbaa !10
  %136 = icmp sge i64 %135, -2147483648
  br i1 %136, label %137, label %180

137:                                              ; preds = %134
  %138 = load i64, ptr %4, align 8, !tbaa !10
  %139 = icmp sle i64 %138, 2147483647
  br i1 %139, label %140, label %180

140:                                              ; preds = %137
  %141 = load i64, ptr %4, align 8, !tbaa !10
  %142 = icmp slt i64 %141, 0
  br i1 %142, label %143, label %146

143:                                              ; preds = %140
  %144 = load i64, ptr %4, align 8, !tbaa !10
  %145 = add nsw i64 4294967296, %144
  store i64 %145, ptr %4, align 8, !tbaa !10
  br label %146

146:                                              ; preds = %143, %140
  %147 = load ptr, ptr %5, align 8, !tbaa !5
  %148 = icmp ne ptr %147, null
  br i1 %148, label %149, label %174

149:                                              ; preds = %146
  %150 = load ptr, ptr %5, align 8, !tbaa !5
  %151 = getelementptr inbounds i8, ptr %150, i64 0
  store i8 -13, ptr %151, align 1, !tbaa !12
  %152 = load i64, ptr %4, align 8, !tbaa !10
  %153 = and i64 %152, 255
  %154 = trunc i64 %153 to i8
  %155 = load ptr, ptr %5, align 8, !tbaa !5
  %156 = getelementptr inbounds i8, ptr %155, i64 1
  store i8 %154, ptr %156, align 1, !tbaa !12
  %157 = load i64, ptr %4, align 8, !tbaa !10
  %158 = ashr i64 %157, 8
  %159 = and i64 %158, 255
  %160 = trunc i64 %159 to i8
  %161 = load ptr, ptr %5, align 8, !tbaa !5
  %162 = getelementptr inbounds i8, ptr %161, i64 2
  store i8 %160, ptr %162, align 1, !tbaa !12
  %163 = load i64, ptr %4, align 8, !tbaa !10
  %164 = ashr i64 %163, 16
  %165 = and i64 %164, 255
  %166 = trunc i64 %165 to i8
  %167 = load ptr, ptr %5, align 8, !tbaa !5
  %168 = getelementptr inbounds i8, ptr %167, i64 3
  store i8 %166, ptr %168, align 1, !tbaa !12
  %169 = load i64, ptr %4, align 8, !tbaa !10
  %170 = ashr i64 %169, 24
  %171 = trunc i64 %170 to i8
  %172 = load ptr, ptr %5, align 8, !tbaa !5
  %173 = getelementptr inbounds i8, ptr %172, i64 4
  store i8 %171, ptr %173, align 1, !tbaa !12
  br label %174

174:                                              ; preds = %149, %146
  %175 = load ptr, ptr %6, align 8, !tbaa !13
  %176 = icmp ne ptr %175, null
  br i1 %176, label %177, label %179

177:                                              ; preds = %174
  %178 = load ptr, ptr %6, align 8, !tbaa !13
  store i64 5, ptr %178, align 8, !tbaa !10
  br label %179

179:                                              ; preds = %177, %174
  br label %239

180:                                              ; preds = %137, %134
  call void @llvm.lifetime.start.p0(i64 8, ptr %7) #10
  %181 = load i64, ptr %4, align 8, !tbaa !10
  store i64 %181, ptr %7, align 8, !tbaa !10
  %182 = load ptr, ptr %5, align 8, !tbaa !5
  %183 = icmp ne ptr %182, null
  br i1 %183, label %184, label %233

184:                                              ; preds = %180
  %185 = load ptr, ptr %5, align 8, !tbaa !5
  %186 = getelementptr inbounds i8, ptr %185, i64 0
  store i8 -12, ptr %186, align 1, !tbaa !12
  %187 = load i64, ptr %7, align 8, !tbaa !10
  %188 = and i64 %187, 255
  %189 = trunc i64 %188 to i8
  %190 = load ptr, ptr %5, align 8, !tbaa !5
  %191 = getelementptr inbounds i8, ptr %190, i64 1
  store i8 %189, ptr %191, align 1, !tbaa !12
  %192 = load i64, ptr %7, align 8, !tbaa !10
  %193 = lshr i64 %192, 8
  %194 = and i64 %193, 255
  %195 = trunc i64 %194 to i8
  %196 = load ptr, ptr %5, align 8, !tbaa !5
  %197 = getelementptr inbounds i8, ptr %196, i64 2
  store i8 %195, ptr %197, align 1, !tbaa !12
  %198 = load i64, ptr %7, align 8, !tbaa !10
  %199 = lshr i64 %198, 16
  %200 = and i64 %199, 255
  %201 = trunc i64 %200 to i8
  %202 = load ptr, ptr %5, align 8, !tbaa !5
  %203 = getelementptr inbounds i8, ptr %202, i64 3
  store i8 %201, ptr %203, align 1, !tbaa !12
  %204 = load i64, ptr %7, align 8, !tbaa !10
  %205 = lshr i64 %204, 24
  %206 = and i64 %205, 255
  %207 = trunc i64 %206 to i8
  %208 = load ptr, ptr %5, align 8, !tbaa !5
  %209 = getelementptr inbounds i8, ptr %208, i64 4
  store i8 %207, ptr %209, align 1, !tbaa !12
  %210 = load i64, ptr %7, align 8, !tbaa !10
  %211 = lshr i64 %210, 32
  %212 = and i64 %211, 255
  %213 = trunc i64 %212 to i8
  %214 = load ptr, ptr %5, align 8, !tbaa !5
  %215 = getelementptr inbounds i8, ptr %214, i64 5
  store i8 %213, ptr %215, align 1, !tbaa !12
  %216 = load i64, ptr %7, align 8, !tbaa !10
  %217 = lshr i64 %216, 40
  %218 = and i64 %217, 255
  %219 = trunc i64 %218 to i8
  %220 = load ptr, ptr %5, align 8, !tbaa !5
  %221 = getelementptr inbounds i8, ptr %220, i64 6
  store i8 %219, ptr %221, align 1, !tbaa !12
  %222 = load i64, ptr %7, align 8, !tbaa !10
  %223 = lshr i64 %222, 48
  %224 = and i64 %223, 255
  %225 = trunc i64 %224 to i8
  %226 = load ptr, ptr %5, align 8, !tbaa !5
  %227 = getelementptr inbounds i8, ptr %226, i64 7
  store i8 %225, ptr %227, align 1, !tbaa !12
  %228 = load i64, ptr %7, align 8, !tbaa !10
  %229 = lshr i64 %228, 56
  %230 = trunc i64 %229 to i8
  %231 = load ptr, ptr %5, align 8, !tbaa !5
  %232 = getelementptr inbounds i8, ptr %231, i64 8
  store i8 %230, ptr %232, align 1, !tbaa !12
  br label %233

233:                                              ; preds = %184, %180
  %234 = load ptr, ptr %6, align 8, !tbaa !13
  %235 = icmp ne ptr %234, null
  br i1 %235, label %236, label %238

236:                                              ; preds = %233
  %237 = load ptr, ptr %6, align 8, !tbaa !13
  store i64 9, ptr %237, align 8, !tbaa !10
  br label %238

238:                                              ; preds = %236, %233
  call void @llvm.lifetime.end.p0(i64 8, ptr %7) #10
  br label %239

239:                                              ; preds = %238, %179
  br label %240

240:                                              ; preds = %239, %133
  br label %241

241:                                              ; preds = %240, %93
  br label %242

242:                                              ; preds = %241, %59
  br label %243

243:                                              ; preds = %242, %26
  ret void
}

; Function Attrs: nounwind uwtable
define dso_local i64 @lpEntrySizeInteger(i64 noundef %0) #0 {
  %2 = alloca i64, align 8
  %3 = alloca i64, align 8
  %4 = alloca i64, align 8
  store i64 %0, ptr %2, align 8, !tbaa !25
  call void @llvm.lifetime.start.p0(i64 8, ptr %3) #10
  %5 = load i64, ptr %2, align 8, !tbaa !25
  call void @lpEncodeIntegerGetType(i64 noundef %5, ptr noundef null, ptr noundef %3)
  call void @llvm.lifetime.start.p0(i64 8, ptr %4) #10
  %6 = load i64, ptr %3, align 8, !tbaa !10
  %7 = call i64 @lpEncodeBacklenBytes(i64 noundef %6)
  store i64 %7, ptr %4, align 8, !tbaa !10
  %8 = load i64, ptr %3, align 8, !tbaa !10
  %9 = load i64, ptr %4, align 8, !tbaa !10
  %10 = add i64 %8, %9
  call void @llvm.lifetime.end.p0(i64 8, ptr %4) #10
  call void @llvm.lifetime.end.p0(i64 8, ptr %3) #10
  ret i64 %10
}