; Function Attrs: mustprogress nofree norecurse nosync nounwind willreturn memory(none) uwtable
define dso_local range(i64 2, 11) i64 @lpEntrySizeInteger(i64 noundef %0) local_unnamed_addr #11 {
  %or.cond.i = icmp ult i64 %0, 128
  br i1 %or.cond.i, label %lpEncodeBacklenBytes.exit, label %2

2:                                                ; preds = %1
  %3 = add i64 %0, 4096
  %or.cond3.i = icmp ult i64 %3, 8192
  br i1 %or.cond3.i, label %lpEncodeBacklenBytes.exit, label %4

4:                                                ; preds = %2
  %5 = add i64 %0, 32768
  %or.cond5.i = icmp ult i64 %5, 65536
  br i1 %or.cond5.i, label %lpEncodeBacklenBytes.exit, label %6

6:                                                ; preds = %4
  %7 = add i64 %0, 8388608
  %or.cond7.i = icmp ult i64 %7, 16777216
  br i1 %or.cond7.i, label %lpEncodeBacklenBytes.exit, label %8

8:                                                ; preds = %6
  %9 = add i64 %0, 2147483648
  %or.cond9.i = icmp ult i64 %9, 4294967296
  %10 = select i1 %or.cond9.i, i64 6, i64 10
  br label %lpEncodeBacklenBytes.exit

lpEncodeBacklenBytes.exit:                        ; preds = %8, %1, %2, %4, %6
  %.sink.i = phi i64 [ 2, %1 ], [ 3, %2 ], [ 4, %4 ], [ 5, %6 ], [ %10, %8 ]
  ret i64 %.sink.i
}